; ModuleID = '52/5789.cpp'
source_filename = "52/5789.cpp"
target datalayout = "e-m:e-p270:32:32-p271:32:32-p272:64:64-i64:64-f80:128-n8:16:32:64-S128"
target triple = "x86_64-pc-linux-gnu"

%"class.std::ios_base::Init" = type { i8 }
%"class.std::basic_istream" = type { i32 (...)**, i64, %"class.std::basic_ios" }
%"class.std::basic_ios" = type { %"class.std::ios_base", %"class.std::basic_ostream"*, i8, i8, %"class.std::basic_streambuf"*, %"class.std::ctype"*, %"class.std::num_put"*, %"class.std::num_get"* }
%"class.std::ios_base" = type { i32 (...)**, i64, i64, i32, i32, i32, %"struct.std::ios_base::_Callback_list"*, %"struct.std::ios_base::_Words", [8 x %"struct.std::ios_base::_Words"], i32, %"struct.std::ios_base::_Words"*, %"class.std::locale" }
%"struct.std::ios_base::_Callback_list" = type { %"struct.std::ios_base::_Callback_list"*, void (i32, %"class.std::ios_base"*, i32)*, i32, i32 }
%"struct.std::ios_base::_Words" = type { i8*, i64 }
%"class.std::locale" = type { %"class.std::locale::_Impl"* }
%"class.std::locale::_Impl" = type { i32, %"class.std::locale::facet"**, i64, %"class.std::locale::facet"**, i8** }
%"class.std::locale::facet" = type <{ i32 (...)**, i32, [4 x i8] }>
%"class.std::basic_ostream" = type { i32 (...)**, %"class.std::basic_ios" }
%"class.std::basic_streambuf" = type { i32 (...)**, i8*, i8*, i8*, i8*, i8*, i8*, %"class.std::locale" }
%"class.std::ctype" = type <{ %"class.std::locale::facet.base", [4 x i8], %struct.__locale_struct*, i8, [7 x i8], i32*, i32*, i16*, i8, [256 x i8], [256 x i8], i8, [6 x i8] }>
%"class.std::locale::facet.base" = type <{ i32 (...)**, i32 }>
%struct.__locale_struct = type { [13 x %struct.__locale_data*], i16*, i32*, i32*, [13 x i8*] }
%struct.__locale_data = type opaque
%"class.std::num_put" = type { %"class.std::locale::facet.base", [4 x i8] }
%"class.std::num_get" = type { %"class.std::locale::facet.base", [4 x i8] }

@_ZStL8__ioinit = internal global %"class.std::ios_base::Init" zeroinitializer, align 1
@__dso_handle = external hidden global i8
@_ZSt3cin = external dso_local global %"class.std::basic_istream", align 8
@_ZSt4cout = external dso_local global %"class.std::basic_ostream", align 8
@llvm.global_ctors = appending global [1 x { i32, void ()*, i8* }] [{ i32, void ()*, i8* } { i32 65535, void ()* @_GLOBAL__sub_I_5789.cpp, i8* null }]

; Function Attrs: noinline uwtable
define internal void @__cxx_global_var_init() #0 section ".text.startup" {
  call void @_ZNSt8ios_base4InitC1Ev(%"class.std::ios_base::Init"* @_ZStL8__ioinit)
  %1 = call i32 @__cxa_atexit(void (i8*)* bitcast (void (%"class.std::ios_base::Init"*)* @_ZNSt8ios_base4InitD1Ev to void (i8*)*), i8* getelementptr inbounds (%"class.std::ios_base::Init", %"class.std::ios_base::Init"* @_ZStL8__ioinit, i32 0, i32 0), i8* @__dso_handle) #3
  ret void
}

declare dso_local void @_ZNSt8ios_base4InitC1Ev(%"class.std::ios_base::Init"*) unnamed_addr #1

; Function Attrs: nounwind
declare dso_local void @_ZNSt8ios_base4InitD1Ev(%"class.std::ios_base::Init"*) unnamed_addr #2

; Function Attrs: nounwind
declare dso_local i32 @__cxa_atexit(void (i8*)*, i8*, i8*) #3

; Function Attrs: noinline norecurse uwtable
define dso_local i32 @main() #4 {
  %1 = alloca i32, align 4
  %2 = alloca i32, align 4
  %3 = alloca i32, align 4
  %4 = alloca i32, align 4
  %5 = alloca [101 x i32], align 16
  %6 = alloca i32*, align 8
  %7 = alloca i32, align 4
  store i32 0, i32* %1, align 4
  %8 = call dereferenceable(280) %"class.std::basic_istream"* @_ZNSirsERi(%"class.std::basic_istream"* @_ZSt3cin, i32* dereferenceable(4) %2)
  %9 = call dereferenceable(280) %"class.std::basic_istream"* @_ZNSirsERi(%"class.std::basic_istream"* %8, i32* dereferenceable(4) %3)
  %10 = getelementptr inbounds [101 x i32], [101 x i32]* %5, i64 0, i64 0
  store i32* %10, i32** %6, align 8
  %11 = getelementptr inbounds [101 x i32], [101 x i32]* %5, i64 0, i64 0
  store i32* %11, i32** %6, align 8
  br label %12

12:                                               ; preds = %22, %0
  %13 = load i32*, i32** %6, align 8
  %14 = getelementptr inbounds [101 x i32], [101 x i32]* %5, i64 0, i64 0
  %15 = load i32, i32* %2, align 4
  %16 = sext i32 %15 to i64
  %17 = getelementptr inbounds i32, i32* %14, i64 %16
  %18 = icmp ult i32* %13, %17
  br i1 %18, label %19, label %25

19:                                               ; preds = %12
  %20 = load i32*, i32** %6, align 8
  %21 = call dereferenceable(280) %"class.std::basic_istream"* @_ZNSirsERi(%"class.std::basic_istream"* @_ZSt3cin, i32* dereferenceable(4) %20)
  br label %22

22:                                               ; preds = %19
  %23 = load i32*, i32** %6, align 8
  %24 = getelementptr inbounds i32, i32* %23, i32 1
  store i32* %24, i32** %6, align 8
  br label %12

25:                                               ; preds = %12
  store i32 0, i32* %7, align 4
  br label %26

26:                                               ; preds = %57, %25
  %27 = load i32, i32* %7, align 4
  %28 = load i32, i32* %3, align 4
  %29 = icmp slt i32 %27, %28
  br i1 %29, label %30, label %60

30:                                               ; preds = %26
  %31 = getelementptr inbounds [101 x i32], [101 x i32]* %5, i64 0, i64 0
  %32 = load i32, i32* %2, align 4
  %33 = sext i32 %32 to i64
  %34 = getelementptr inbounds i32, i32* %31, i64 %33
  %35 = getelementptr inbounds i32, i32* %34, i64 -1
  store i32* %35, i32** %6, align 8
  %36 = load i32*, i32** %6, align 8
  %37 = load i32, i32* %36, align 4
  store i32 %37, i32* %4, align 4
  %38 = load i32*, i32** %6, align 8
  %39 = getelementptr inbounds i32, i32* %38, i32 -1
  store i32* %39, i32** %6, align 8
  br label %40

40:                                               ; preds = %49, %30
  %41 = load i32*, i32** %6, align 8
  %42 = getelementptr inbounds [101 x i32], [101 x i32]* %5, i64 0, i64 0
  %43 = icmp uge i32* %41, %42
  br i1 %43, label %44, label %52

44:                                               ; preds = %40
  %45 = load i32*, i32** %6, align 8
  %46 = load i32, i32* %45, align 4
  %47 = load i32*, i32** %6, align 8
  %48 = getelementptr inbounds i32, i32* %47, i64 1
  store i32 %46, i32* %48, align 4
  br label %49

49:                                               ; preds = %44
  %50 = load i32*, i32** %6, align 8
  %51 = getelementptr inbounds i32, i32* %50, i32 -1
  store i32* %51, i32** %6, align 8
  br label %40

52:                                               ; preds = %40
  %53 = load i32*, i32** %6, align 8
  %54 = getelementptr inbounds i32, i32* %53, i32 1
  store i32* %54, i32** %6, align 8
  %55 = load i32, i32* %4, align 4
  %56 = load i32*, i32** %6, align 8
  store i32 %55, i32* %56, align 4
  br label %57

57:                                               ; preds = %52
  %58 = load i32, i32* %7, align 4
  %59 = add nsw i32 %58, 1
  store i32 %59, i32* %7, align 4
  br label %26

60:                                               ; preds = %26
  %61 = getelementptr inbounds [101 x i32], [101 x i32]* %5, i64 0, i64 0
  store i32* %61, i32** %6, align 8
  br label %62

62:                                               ; preds = %83, %60
  %63 = load i32*, i32** %6, align 8
  %64 = getelementptr inbounds [101 x i32], [101 x i32]* %5, i64 0, i64 0
  %65 = load i32, i32* %2, align 4
  %66 = sext i32 %65 to i64
  %67 = getelementptr inbounds i32, i32* %64, i64 %66
  %68 = icmp ult i32* %63, %67
  br i1 %68, label %69, label %86

69:                                               ; preds = %62
  %70 = load i32*, i32** %6, align 8
  %71 = getelementptr inbounds [101 x i32], [101 x i32]* %5, i64 0, i64 0
  %72 = icmp eq i32* %70, %71
  br i1 %72, label %73, label %77

73:                                               ; preds = %69
  %74 = load i32*, i32** %6, align 8
  %75 = load i32, i32* %74, align 4
  %76 = call dereferenceable(272) %"class.std::basic_ostream"* @_ZNSolsEi(%"class.std::basic_ostream"* @_ZSt4cout, i32 %75)
  br label %82

77:                                               ; preds = %69
  %78 = call dereferenceable(272) %"class.std::basic_ostream"* @_ZStlsISt11char_traitsIcEERSt13basic_ostreamIcT_ES5_c(%"class.std::basic_ostream"* dereferenceable(272) @_ZSt4cout, i8 signext 32)
  %79 = load i32*, i32** %6, align 8
  %80 = load i32, i32* %79, align 4
  %81 = call dereferenceable(272) %"class.std::basic_ostream"* @_ZNSolsEi(%"class.std::basic_ostream"* %78, i32 %80)
  br label %82

82:                                               ; preds = %77, %73
  br label %83

83:                                               ; preds = %82
  %84 = load i32*, i32** %6, align 8
  %85 = getelementptr inbounds i32, i32* %84, i32 1
  store i32* %85, i32** %6, align 8
  br label %62

86:                                               ; preds = %62
  ret i32 0
}

declare dso_local dereferenceable(280) %"class.std::basic_istream"* @_ZNSirsERi(%"class.std::basic_istream"*, i32* dereferenceable(4)) #1

declare dso_local dereferenceable(272) %"class.std::basic_ostream"* @_ZNSolsEi(%"class.std::basic_ostream"*, i32) #1

declare dso_local dereferenceable(272) %"class.std::basic_ostream"* @_ZStlsISt11char_traitsIcEERSt13basic_ostreamIcT_ES5_c(%"class.std::basic_ostream"* dereferenceable(272), i8 signext) #1

; Function Attrs: noinline uwtable
define internal void @_GLOBAL__sub_I_5789.cpp() #0 section ".text.startup" {
  call void @__cxx_global_var_init()
  ret void
}


!llvm.module.flags = !{!0}
!llvm.ident = !{!1}

!0 = !{i32 1, !"wchar_size", i32 4}
!1 = !{!"clang version 10.0.0-4ubuntu1 "}
